#include <math.h>
#include <stdio.h>
#include <stdlib.h>
#include <string.h>


int T,n;

int calc(int n, int min){
	if(n==1)
		return 1;
	if(n<=min)
		return 0;
	int re=0;
	for(int i=min+1; i<=n; i++)
		if(n%i==0){
			//printf("calc %d,%d += calc %d,%d\n",n,min,n/i,i);
			re+=calc(n/i, i-1);
		}
	if(!re)re=1;
	//printf("calc %d,%d=%d\n", n, min, re);
	return re;
}

int main(){

	scanf("%d",&T);
	while(T--){
		scanf("%d",&n);
		printf("%d\n", calc(n,1));
	}
	return 0;
}